target datalayout = "e-m:e-p270:32:32-p271:32:32-p272:64:64-i64:64-i128:128-f80:128-n8:16:32:64-S128"
target triple = "x86_64-pc-linux-gnu"

%struct.EllipseEquation = type { [7 x double] }
%struct.MyArc = type { double, double, double, double, double, double, double, i32, i32, i32, i32, i32, i32, ptr, ptr, i32, i8, %struct.EllipseEquation, double }

; Function Attrs: inlinehint mustprogress nounwind uwtable
define linkonce_odr hidden noundef double @_Z9ArcLengthdd(double noundef %0, double noundef %1) #10 comdat {
  %3 = alloca double, align 8
  %4 = alloca double, align 8
  %5 = alloca double, align 8
  store double %0, ptr %4, align 8, !tbaa !10
  store double %1, ptr %5, align 8, !tbaa !10
  %6 = load double, ptr %5, align 8, !tbaa !10
  %7 = load double, ptr %4, align 8, !tbaa !10
  %8 = fcmp ogt double %6, %7
  br i1 %8, label %9, label %13

9:                                                ; preds = %2
  %10 = load double, ptr %5, align 8, !tbaa !10
  %11 = load double, ptr %4, align 8, !tbaa !10
  %12 = fsub double %10, %11
  store double %12, ptr %3, align 8
  br label %18

13:                                               ; preds = %2
  %14 = load double, ptr %4, align 8, !tbaa !10
  %15 = fsub double 0x401921FB54442D18, %14
  %16 = load double, ptr %5, align 8, !tbaa !10
  %17 = fadd double %15, %16
  store double %17, ptr %3, align 8
  br label %18

18:                                               ; preds = %13, %9
  %19 = load double, ptr %3, align 8
  ret double %19
}

; Function Attrs: mustprogress uwtable
define hidden void @_ZN2cv8ximgproc15EdgeDrawingImpl6addArcEP5MyArcRiddddddiiiiiiPdS5_id(ptr noundef %0, ptr noundef nonnull align 4 dereferenceable(4) %1, double noundef %2, double noundef %3, double noundef %4, double noundef %5, double noundef %6, double noundef %7, i32 noundef %8, i32 noundef %9, i32 noundef %10, i32 noundef %11, i32 noundef %12, i32 noundef %13, ptr noundef %14, ptr noundef %15, i32 noundef %16, double noundef %17) #4 align 2 {
  %19 = alloca ptr, align 8
  %20 = alloca ptr, align 8
  %21 = alloca double, align 8
  %22 = alloca double, align 8
  %23 = alloca double, align 8
  %24 = alloca double, align 8
  %25 = alloca double, align 8
  %26 = alloca double, align 8
  %27 = alloca i32, align 4
  %28 = alloca i32, align 4
  %29 = alloca i32, align 4
  %30 = alloca i32, align 4
  %31 = alloca i32, align 4
  %32 = alloca i32, align 4
  %33 = alloca ptr, align 8
  %34 = alloca ptr, align 8
  %35 = alloca i32, align 4
  %36 = alloca double, align 8
  store ptr %0, ptr %19, align 8, !tbaa !463
  store ptr %1, ptr %20, align 8, !tbaa !131
  store double %2, ptr %21, align 8, !tbaa !10
  store double %3, ptr %22, align 8, !tbaa !10
  store double %4, ptr %23, align 8, !tbaa !10
  store double %5, ptr %24, align 8, !tbaa !10
  store double %6, ptr %25, align 8, !tbaa !10
  store double %7, ptr %26, align 8, !tbaa !10
  store i32 %8, ptr %27, align 4, !tbaa !8
  store i32 %9, ptr %28, align 4, !tbaa !8
  store i32 %10, ptr %29, align 4, !tbaa !8
  store i32 %11, ptr %30, align 4, !tbaa !8
  store i32 %12, ptr %31, align 4, !tbaa !8
  store i32 %13, ptr %32, align 4, !tbaa !8
  store ptr %14, ptr %33, align 8, !tbaa !42
  store ptr %15, ptr %34, align 8, !tbaa !42
  store i32 %16, ptr %35, align 4, !tbaa !8
  store double %17, ptr %36, align 8, !tbaa !10
  %37 = load double, ptr %21, align 8, !tbaa !10
  %38 = load ptr, ptr %19, align 8, !tbaa !463
  %39 = load ptr, ptr %20, align 8, !tbaa !131
  %40 = load i32, ptr %39, align 4, !tbaa !8
  %41 = sext i32 %40 to i64
  %42 = getelementptr inbounds %struct.MyArc, ptr %38, i64 %41
  %43 = getelementptr inbounds nuw %struct.MyArc, ptr %42, i32 0, i32 0
  store double %37, ptr %43, align 8, !tbaa !470
  %44 = load double, ptr %22, align 8, !tbaa !10
  %45 = load ptr, ptr %19, align 8, !tbaa !463
  %46 = load ptr, ptr %20, align 8, !tbaa !131
  %47 = load i32, ptr %46, align 4, !tbaa !8
  %48 = sext i32 %47 to i64
  %49 = getelementptr inbounds %struct.MyArc, ptr %45, i64 %48
  %50 = getelementptr inbounds nuw %struct.MyArc, ptr %49, i32 0, i32 1
  store double %44, ptr %50, align 8, !tbaa !471
  %51 = load double, ptr %23, align 8, !tbaa !10
  %52 = load ptr, ptr %19, align 8, !tbaa !463
  %53 = load ptr, ptr %20, align 8, !tbaa !131
  %54 = load i32, ptr %53, align 4, !tbaa !8
  %55 = sext i32 %54 to i64
  %56 = getelementptr inbounds %struct.MyArc, ptr %52, i64 %55
  %57 = getelementptr inbounds nuw %struct.MyArc, ptr %56, i32 0, i32 2
  store double %51, ptr %57, align 8, !tbaa !472
  %58 = load double, ptr %24, align 8, !tbaa !10
  %59 = load ptr, ptr %19, align 8, !tbaa !463
  %60 = load ptr, ptr %20, align 8, !tbaa !131
  %61 = load i32, ptr %60, align 4, !tbaa !8
  %62 = sext i32 %61 to i64
  %63 = getelementptr inbounds %struct.MyArc, ptr %59, i64 %62
  %64 = getelementptr inbounds nuw %struct.MyArc, ptr %63, i32 0, i32 3
  store double %58, ptr %64, align 8, !tbaa !473
  %65 = load double, ptr %25, align 8, !tbaa !10
  %66 = load ptr, ptr %19, align 8, !tbaa !463
  %67 = load ptr, ptr %20, align 8, !tbaa !131
  %68 = load i32, ptr %67, align 4, !tbaa !8
  %69 = sext i32 %68 to i64
  %70 = getelementptr inbounds %struct.MyArc, ptr %66, i64 %69
  %71 = getelementptr inbounds nuw %struct.MyArc, ptr %70, i32 0, i32 4
  store double %65, ptr %71, align 8, !tbaa !482
  %72 = load double, ptr %26, align 8, !tbaa !10
  %73 = load ptr, ptr %19, align 8, !tbaa !463
  %74 = load ptr, ptr %20, align 8, !tbaa !131
  %75 = load i32, ptr %74, align 4, !tbaa !8
  %76 = sext i32 %75 to i64
  %77 = getelementptr inbounds %struct.MyArc, ptr %73, i64 %76
  %78 = getelementptr inbounds nuw %struct.MyArc, ptr %77, i32 0, i32 5
  store double %72, ptr %78, align 8, !tbaa !483
  %79 = load double, ptr %25, align 8, !tbaa !10
  %80 = load double, ptr %26, align 8, !tbaa !10
  %81 = call noundef double @_Z9ArcLengthdd(double noundef %79, double noundef %80)
  %82 = fdiv double %81, 0x401921FB54442D18
  %83 = load ptr, ptr %19, align 8, !tbaa !463
  %84 = load ptr, ptr %20, align 8, !tbaa !131
  %85 = load i32, ptr %84, align 4, !tbaa !8
  %86 = sext i32 %85 to i64
  %87 = getelementptr inbounds %struct.MyArc, ptr %83, i64 %86
  %88 = getelementptr inbounds nuw %struct.MyArc, ptr %87, i32 0, i32 6
  store double %82, ptr %88, align 8, !tbaa !519
  %89 = load i32, ptr %27, align 4, !tbaa !8
  %90 = load ptr, ptr %19, align 8, !tbaa !463
  %91 = load ptr, ptr %20, align 8, !tbaa !131
  %92 = load i32, ptr %91, align 4, !tbaa !8
  %93 = sext i32 %92 to i64
  %94 = getelementptr inbounds %struct.MyArc, ptr %90, i64 %93
  %95 = getelementptr inbounds nuw %struct.MyArc, ptr %94, i32 0, i32 7
  store i32 %89, ptr %95, align 8, !tbaa !474
  %96 = load i32, ptr %28, align 4, !tbaa !8
  %97 = load ptr, ptr %19, align 8, !tbaa !463
  %98 = load ptr, ptr %20, align 8, !tbaa !131
  %99 = load i32, ptr %98, align 4, !tbaa !8
  %100 = sext i32 %99 to i64
  %101 = getelementptr inbounds %struct.MyArc, ptr %97, i64 %100
  %102 = getelementptr inbounds nuw %struct.MyArc, ptr %101, i32 0, i32 8
  store i32 %96, ptr %102, align 4, !tbaa !493
  %103 = load ptr, ptr %19, align 8, !tbaa !463
  %104 = load ptr, ptr %20, align 8, !tbaa !131
  %105 = load i32, ptr %104, align 4, !tbaa !8
  %106 = sext i32 %105 to i64
  %107 = getelementptr inbounds %struct.MyArc, ptr %103, i64 %106
  %108 = getelementptr inbounds nuw %struct.MyArc, ptr %107, i32 0, i32 16
  store i8 0, ptr %108, align 4, !tbaa !467
  %109 = load i32, ptr %29, align 4, !tbaa !8
  %110 = load ptr, ptr %19, align 8, !tbaa !463
  %111 = load ptr, ptr %20, align 8, !tbaa !131
  %112 = load i32, ptr %111, align 4, !tbaa !8
  %113 = sext i32 %112 to i64
  %114 = getelementptr inbounds %struct.MyArc, ptr %110, i64 %113
  %115 = getelementptr inbounds nuw %struct.MyArc, ptr %114, i32 0, i32 9
  store i32 %109, ptr %115, align 8, !tbaa !476
  %116 = load i32, ptr %30, align 4, !tbaa !8
  %117 = load ptr, ptr %19, align 8, !tbaa !463
  %118 = load ptr, ptr %20, align 8, !tbaa !131
  %119 = load i32, ptr %118, align 4, !tbaa !8
  %120 = sext i32 %119 to i64
  %121 = getelementptr inbounds %struct.MyArc, ptr %117, i64 %120
  %122 = getelementptr inbounds nuw %struct.MyArc, ptr %121, i32 0, i32 10
  store i32 %116, ptr %122, align 4, !tbaa !477
  %123 = load i32, ptr %31, align 4, !tbaa !8
  %124 = load ptr, ptr %19, align 8, !tbaa !463
  %125 = load ptr, ptr %20, align 8, !tbaa !131
  %126 = load i32, ptr %125, align 4, !tbaa !8
  %127 = sext i32 %126 to i64
  %128 = getelementptr inbounds %struct.MyArc, ptr %124, i64 %127
  %129 = getelementptr inbounds nuw %struct.MyArc, ptr %128, i32 0, i32 11
  store i32 %123, ptr %129, align 8, !tbaa !478
  %130 = load i32, ptr %32, align 4, !tbaa !8
  %131 = load ptr, ptr %19, align 8, !tbaa !463
  %132 = load ptr, ptr %20, align 8, !tbaa !131
  %133 = load i32, ptr %132, align 4, !tbaa !8
  %134 = sext i32 %133 to i64
  %135 = getelementptr inbounds %struct.MyArc, ptr %131, i64 %134
  %136 = getelementptr inbounds nuw %struct.MyArc, ptr %135, i32 0, i32 12
  store i32 %130, ptr %136, align 4, !tbaa !479
  %137 = load ptr, ptr %33, align 8, !tbaa !42
  %138 = load ptr, ptr %19, align 8, !tbaa !463
  %139 = load ptr, ptr %20, align 8, !tbaa !131
  %140 = load i32, ptr %139, align 4, !tbaa !8
  %141 = sext i32 %140 to i64
  %142 = getelementptr inbounds %struct.MyArc, ptr %138, i64 %141
  %143 = getelementptr inbounds nuw %struct.MyArc, ptr %142, i32 0, i32 13
  store ptr %137, ptr %143, align 8, !tbaa !480
  %144 = load ptr, ptr %34, align 8, !tbaa !42
  %145 = load ptr, ptr %19, align 8, !tbaa !463
  %146 = load ptr, ptr %20, align 8, !tbaa !131
  %147 = load i32, ptr %146, align 4, !tbaa !8
  %148 = sext i32 %147 to i64
  %149 = getelementptr inbounds %struct.MyArc, ptr %145, i64 %148
  %150 = getelementptr inbounds nuw %struct.MyArc, ptr %149, i32 0, i32 14
  store ptr %144, ptr %150, align 8, !tbaa !481
  %151 = load i32, ptr %35, align 4, !tbaa !8
  %152 = load ptr, ptr %19, align 8, !tbaa !463
  %153 = load ptr, ptr %20, align 8, !tbaa !131
  %154 = load i32, ptr %153, align 4, !tbaa !8
  %155 = sext i32 %154 to i64
  %156 = getelementptr inbounds %struct.MyArc, ptr %152, i64 %155
  %157 = getelementptr inbounds nuw %struct.MyArc, ptr %156, i32 0, i32 15
  store i32 %151, ptr %157, align 8, !tbaa !475
  %158 = load ptr, ptr %20, align 8, !tbaa !131
  %159 = load i32, ptr %158, align 4, !tbaa !8
  %160 = add nsw i32 %159, 1
  store i32 %160, ptr %158, align 4, !tbaa !8
  %161 = load ptr, ptr %19, align 8, !tbaa !463
  %162 = load ptr, ptr %20, align 8, !tbaa !131
  call void @_ZN2cv8ximgproc15EdgeDrawingImpl15joinLastTwoArcsEP5MyArcRi(ptr noundef %161, ptr noundef nonnull align 4 dereferenceable(4) %162)
  ret void
}