; Function Attrs: mustprogress uwtable
define hidden void @_ZN2cv8ximgproc15EdgeDrawingImpl6addArcEP5MyArcRiddddddiiiiiiPdS5_id(ptr noundef captures(none) %0, ptr noundef nonnull align 4 captures(none) dereferenceable(4) %1, double noundef %2, double noundef %3, double noundef %4, double noundef %5, double noundef %6, double noundef %7, i32 noundef %8, i32 noundef %9, i32 noundef %10, i32 noundef %11, i32 noundef %12, i32 noundef %13, ptr noundef %14, ptr noundef %15, i32 noundef %16, double noundef %17) local_unnamed_addr #3 align 2 {
  %19 = load i32, ptr %1, align 4, !tbaa !15
  %20 = sext i32 %19 to i64
  %21 = getelementptr inbounds %struct.MyArc, ptr %0, i64 %20
  store double %2, ptr %21, align 8, !tbaa !449
  %22 = getelementptr inbounds %struct.MyArc, ptr %0, i64 %20, i32 1
  store double %3, ptr %22, align 8, !tbaa !451
  %23 = getelementptr inbounds %struct.MyArc, ptr %0, i64 %20, i32 2
  store double %4, ptr %23, align 8, !tbaa !452
  %24 = getelementptr inbounds %struct.MyArc, ptr %0, i64 %20, i32 3
  store double %5, ptr %24, align 8, !tbaa !453
  %25 = getelementptr inbounds %struct.MyArc, ptr %0, i64 %20, i32 4
  store double %6, ptr %25, align 8, !tbaa !454
  %26 = getelementptr inbounds %struct.MyArc, ptr %0, i64 %20, i32 5
  store double %7, ptr %26, align 8, !tbaa !455
  %27 = fcmp ogt double %7, %6
  %28 = fsub double 0x401921FB54442D18, %6
  %29 = fneg double %6
  %.0.p.i = select i1 %27, double %29, double %28
  %.0.i = fadd double %7, %.0.p.i
  %30 = fdiv double %.0.i, 0x401921FB54442D18
  %31 = getelementptr inbounds %struct.MyArc, ptr %0, i64 %20, i32 6
  store double %30, ptr %31, align 8, !tbaa !456
  %32 = getelementptr inbounds %struct.MyArc, ptr %0, i64 %20, i32 7
  store i32 %8, ptr %32, align 8, !tbaa !457
  %33 = load i32, ptr %1, align 4, !tbaa !15
  %34 = sext i32 %33 to i64
  %35 = getelementptr inbounds %struct.MyArc, ptr %0, i64 %34, i32 8
  store i32 %9, ptr %35, align 4, !tbaa !458
  %36 = load i32, ptr %1, align 4, !tbaa !15
  %37 = sext i32 %36 to i64
  %38 = getelementptr inbounds %struct.MyArc, ptr %0, i64 %37, i32 16
  store i8 0, ptr %38, align 4, !tbaa !459
  %39 = getelementptr inbounds %struct.MyArc, ptr %0, i64 %37, i32 9
  store i32 %10, ptr %39, align 8, !tbaa !460
  %40 = load i32, ptr %1, align 4, !tbaa !15
  %41 = sext i32 %40 to i64
  %42 = getelementptr inbounds %struct.MyArc, ptr %0, i64 %41, i32 10
  store i32 %11, ptr %42, align 4, !tbaa !461
  %43 = load i32, ptr %1, align 4, !tbaa !15
  %44 = sext i32 %43 to i64
  %45 = getelementptr inbounds %struct.MyArc, ptr %0, i64 %44, i32 11
  store i32 %12, ptr %45, align 8, !tbaa !462
  %46 = load i32, ptr %1, align 4, !tbaa !15
  %47 = sext i32 %46 to i64
  %48 = getelementptr inbounds %struct.MyArc, ptr %0, i64 %47, i32 12
  store i32 %13, ptr %48, align 4, !tbaa !463
  %49 = load i32, ptr %1, align 4, !tbaa !15
  %50 = sext i32 %49 to i64
  %51 = getelementptr inbounds %struct.MyArc, ptr %0, i64 %50, i32 13
  store ptr %14, ptr %51, align 8, !tbaa !464
  %52 = getelementptr inbounds %struct.MyArc, ptr %0, i64 %50, i32 14
  store ptr %15, ptr %52, align 8, !tbaa !465
  %53 = getelementptr inbounds %struct.MyArc, ptr %0, i64 %50, i32 15
  store i32 %16, ptr %53, align 8, !tbaa !466
  %54 = load i32, ptr %1, align 4, !tbaa !15
  %55 = add nsw i32 %54, 1
  store i32 %55, ptr %1, align 4, !tbaa !15
  tail call void @_ZN2cv8ximgproc15EdgeDrawingImpl15joinLastTwoArcsEP5MyArcRi(ptr noundef %0, ptr noundef nonnull align 4 dereferenceable(4) %1)
  ret void
}